; ModuleID = '37/1498.c'
source_filename = "37/1498.c"
target datalayout = "e-m:e-p270:32:32-p271:32:32-p272:64:64-i64:64-f80:128-n8:16:32:64-S128"
target triple = "x86_64-pc-linux-gnu"

@.str = private unnamed_addr constant [3 x i8] c"%d\00", align 1
@.str.1 = private unnamed_addr constant [3 x i8] c"%s\00", align 1
@.str.2 = private unnamed_addr constant [4 x i8] c"%c\0A\00", align 1
@.str.3 = private unnamed_addr constant [4 x i8] c"no\0A\00", align 1

; Function Attrs: noinline nounwind uwtable
define dso_local i32 @main() #0 {
  %1 = alloca i32, align 4
  %2 = alloca i32, align 4
  %3 = alloca [100 x [100 x i8]], align 16
  %4 = alloca i32, align 4
  %5 = alloca i32, align 4
  %6 = alloca i32, align 4
  %7 = alloca i32, align 4
  store i32 0, i32* %1, align 4
  store i32 0, i32* %4, align 4
  br label %8

8:                                                ; preds = %26, %0
  %9 = load i32, i32* %4, align 4
  %10 = icmp slt i32 %9, 100
  br i1 %10, label %11, label %29

11:                                               ; preds = %8
  store i32 0, i32* %5, align 4
  br label %12

12:                                               ; preds = %22, %11
  %13 = load i32, i32* %5, align 4
  %14 = icmp slt i32 %13, 100
  br i1 %14, label %15, label %25

15:                                               ; preds = %12
  %16 = load i32, i32* %4, align 4
  %17 = sext i32 %16 to i64
  %18 = getelementptr inbounds [100 x [100 x i8]], [100 x [100 x i8]]* %3, i64 0, i64 %17
  %19 = load i32, i32* %5, align 4
  %20 = sext i32 %19 to i64
  %21 = getelementptr inbounds [100 x i8], [100 x i8]* %18, i64 0, i64 %20
  store i8 0, i8* %21, align 1
  br label %22

22:                                               ; preds = %15
  %23 = load i32, i32* %5, align 4
  %24 = add nsw i32 %23, 1
  store i32 %24, i32* %5, align 4
  br label %12

25:                                               ; preds = %12
  br label %26

26:                                               ; preds = %25
  %27 = load i32, i32* %4, align 4
  %28 = add nsw i32 %27, 1
  store i32 %28, i32* %4, align 4
  br label %8

29:                                               ; preds = %8
  %30 = call i32 (i8*, ...) @__isoc99_scanf(i8* getelementptr inbounds ([3 x i8], [3 x i8]* @.str, i64 0, i64 0), i32* %2)
  store i32 0, i32* %4, align 4
  br label %31

31:                                               ; preds = %41, %29
  %32 = load i32, i32* %4, align 4
  %33 = load i32, i32* %2, align 4
  %34 = icmp slt i32 %32, %33
  br i1 %34, label %35, label %44

35:                                               ; preds = %31
  %36 = load i32, i32* %4, align 4
  %37 = sext i32 %36 to i64
  %38 = getelementptr inbounds [100 x [100 x i8]], [100 x [100 x i8]]* %3, i64 0, i64 %37
  %39 = getelementptr inbounds [100 x i8], [100 x i8]* %38, i64 0, i64 0
  %40 = call i32 (i8*, ...) @__isoc99_scanf(i8* getelementptr inbounds ([3 x i8], [3 x i8]* @.str.1, i64 0, i64 0), i8* %39)
  br label %41

41:                                               ; preds = %35
  %42 = load i32, i32* %4, align 4
  %43 = add nsw i32 %42, 1
  store i32 %43, i32* %4, align 4
  br label %31

44:                                               ; preds = %31
  store i32 0, i32* %4, align 4
  br label %45

45:                                               ; preds = %126, %44
  %46 = load i32, i32* %4, align 4
  %47 = load i32, i32* %2, align 4
  %48 = icmp slt i32 %46, %47
  br i1 %48, label %49, label %129

49:                                               ; preds = %45
  store i32 0, i32* %5, align 4
  br label %50

50:                                               ; preds = %110, %49
  %51 = load i32, i32* %4, align 4
  %52 = sext i32 %51 to i64
  %53 = getelementptr inbounds [100 x [100 x i8]], [100 x [100 x i8]]* %3, i64 0, i64 %52
  %54 = load i32, i32* %5, align 4
  %55 = sext i32 %54 to i64
  %56 = getelementptr inbounds [100 x i8], [100 x i8]* %53, i64 0, i64 %55
  %57 = load i8, i8* %56, align 1
  %58 = sext i8 %57 to i32
  %59 = icmp ne i32 %58, 0
  br i1 %59, label %60, label %113

60:                                               ; preds = %50
  store i32 0, i32* %6, align 4
  store i32 0, i32* %7, align 4
  br label %61

61:                                               ; preds = %93, %60
  %62 = load i32, i32* %4, align 4
  %63 = sext i32 %62 to i64
  %64 = getelementptr inbounds [100 x [100 x i8]], [100 x [100 x i8]]* %3, i64 0, i64 %63
  %65 = load i32, i32* %6, align 4
  %66 = sext i32 %65 to i64
  %67 = getelementptr inbounds [100 x i8], [100 x i8]* %64, i64 0, i64 %66
  %68 = load i8, i8* %67, align 1
  %69 = sext i8 %68 to i32
  %70 = icmp ne i32 %69, 0
  br i1 %70, label %71, label %96

71:                                               ; preds = %61
  %72 = load i32, i32* %4, align 4
  %73 = sext i32 %72 to i64
  %74 = getelementptr inbounds [100 x [100 x i8]], [100 x [100 x i8]]* %3, i64 0, i64 %73
  %75 = load i32, i32* %5, align 4
  %76 = sext i32 %75 to i64
  %77 = getelementptr inbounds [100 x i8], [100 x i8]* %74, i64 0, i64 %76
  %78 = load i8, i8* %77, align 1
  %79 = sext i8 %78 to i32
  %80 = load i32, i32* %4, align 4
  %81 = sext i32 %80 to i64
  %82 = getelementptr inbounds [100 x [100 x i8]], [100 x [100 x i8]]* %3, i64 0, i64 %81
  %83 = load i32, i32* %6, align 4
  %84 = sext i32 %83 to i64
  %85 = getelementptr inbounds [100 x i8], [100 x i8]* %82, i64 0, i64 %84
  %86 = load i8, i8* %85, align 1
  %87 = sext i8 %86 to i32
  %88 = icmp eq i32 %79, %87
  br i1 %88, label %89, label %92

89:                                               ; preds = %71
  %90 = load i32, i32* %7, align 4
  %91 = add nsw i32 %90, 1
  store i32 %91, i32* %7, align 4
  br label %92

92:                                               ; preds = %89, %71
  br label %93

93:                                               ; preds = %92
  %94 = load i32, i32* %6, align 4
  %95 = add nsw i32 %94, 1
  store i32 %95, i32* %6, align 4
  br label %61

96:                                               ; preds = %61
  %97 = load i32, i32* %7, align 4
  %98 = icmp eq i32 %97, 1
  br i1 %98, label %99, label %109

99:                                               ; preds = %96
  %100 = load i32, i32* %4, align 4
  %101 = sext i32 %100 to i64
  %102 = getelementptr inbounds [100 x [100 x i8]], [100 x [100 x i8]]* %3, i64 0, i64 %101
  %103 = load i32, i32* %5, align 4
  %104 = sext i32 %103 to i64
  %105 = getelementptr inbounds [100 x i8], [100 x i8]* %102, i64 0, i64 %104
  %106 = load i8, i8* %105, align 1
  %107 = sext i8 %106 to i32
  %108 = call i32 (i8*, ...) @printf(i8* getelementptr inbounds ([4 x i8], [4 x i8]* @.str.2, i64 0, i64 0), i32 %107)
  br label %113

109:                                              ; preds = %96
  br label %110

110:                                              ; preds = %109
  %111 = load i32, i32* %5, align 4
  %112 = add nsw i32 %111, 1
  store i32 %112, i32* %5, align 4
  br label %50

113:                                              ; preds = %99, %50
  %114 = load i32, i32* %4, align 4
  %115 = sext i32 %114 to i64
  %116 = getelementptr inbounds [100 x [100 x i8]], [100 x [100 x i8]]* %3, i64 0, i64 %115
  %117 = load i32, i32* %5, align 4
  %118 = sext i32 %117 to i64
  %119 = getelementptr inbounds [100 x i8], [100 x i8]* %116, i64 0, i64 %118
  %120 = load i8, i8* %119, align 1
  %121 = sext i8 %120 to i32
  %122 = icmp eq i32 %121, 0
  br i1 %122, label %123, label %125

123:                                              ; preds = %113
  %124 = call i32 (i8*, ...) @printf(i8* getelementptr inbounds ([4 x i8], [4 x i8]* @.str.3, i64 0, i64 0))
  br label %125

125:                                              ; preds = %123, %113
  br label %126

126:                                              ; preds = %125
  %127 = load i32, i32* %4, align 4
  %128 = add nsw i32 %127, 1
  store i32 %128, i32* %4, align 4
  br label %45

129:                                              ; preds = %45
  ret i32 0
}

declare dso_local i32 @__isoc99_scanf(i8*, ...) #1

declare dso_local i32 @printf(i8*, ...) #1


!llvm.module.flags = !{!0}
!llvm.ident = !{!1}

!0 = !{i32 1, !"wchar_size", i32 4}
!1 = !{!"clang version 10.0.0-4ubuntu1 "}
