; ModuleID = 'source-C-CXX/36/1498.c'
source_filename = "source-C-CXX/36/1498.c"
target datalayout = "e-m:e-p270:32:32-p271:32:32-p272:64:64-i64:64-f80:128-n8:16:32:64-S128"
target triple = "x86_64-pc-linux-gnu"

@.str = private unnamed_addr constant [3 x i8] c"%d\00", align 1
@.str.1 = private unnamed_addr constant [3 x i8] c"%s\00", align 1
@.str.2 = private unnamed_addr constant [4 x i8] c"%c\0A\00", align 1
@str = private unnamed_addr constant [3 x i8] c"no\00", align 1

; Function Attrs: nofree nounwind sspstrong uwtable
define dso_local i32 @main() local_unnamed_addr #0 {
  %1 = alloca i32, align 4
  %2 = alloca [100 x [100 x i8]], align 16
  %3 = getelementptr inbounds [100 x [100 x i8]], [100 x [100 x i8]]* %2, i64 0, i64 0, i64 0
  %4 = bitcast i32* %1 to i8*
  call void @llvm.lifetime.start.p0i8(i64 4, i8* nonnull %4) #5
  %5 = getelementptr inbounds [100 x [100 x i8]], [100 x [100 x i8]]* %2, i64 0, i64 0, i64 0
  call void @llvm.lifetime.start.p0i8(i64 10000, i8* nonnull %5) #5
  call void @llvm.memset.p0i8.i64(i8* noundef nonnull align 16 dereferenceable(10000) %3, i8 0, i64 10000, i1 false)
  %6 = call i32 (i8*, ...) @__isoc99_scanf(i8* getelementptr inbounds ([3 x i8], [3 x i8]* @.str, i64 0, i64 0), i32* nonnull %1)
  %7 = load i32, i32* %1, align 4, !tbaa !5
  %8 = icmp sgt i32 %7, 0
  br i1 %8, label %11, label %58

9:                                                ; preds = %11
  %10 = icmp sgt i32 %16, 0
  br i1 %10, label %19, label %58

11:                                               ; preds = %0, %11
  %12 = phi i64 [ %15, %11 ], [ 0, %0 ]
  %13 = getelementptr inbounds [100 x [100 x i8]], [100 x [100 x i8]]* %2, i64 0, i64 %12, i64 0
  %14 = call i32 (i8*, ...) @__isoc99_scanf(i8* getelementptr inbounds ([3 x i8], [3 x i8]* @.str.1, i64 0, i64 0), i8* nonnull %13)
  %15 = add nuw nsw i64 %12, 1
  %16 = load i32, i32* %1, align 4, !tbaa !5
  %17 = sext i32 %16 to i64
  %18 = icmp slt i64 %15, %17
  br i1 %18, label %11, label %9, !llvm.loop !9

19:                                               ; preds = %9, %53
  %20 = phi i64 [ %54, %53 ], [ 0, %9 ]
  %21 = getelementptr inbounds [100 x [100 x i8]], [100 x [100 x i8]]* %2, i64 0, i64 %20, i64 0
  %22 = load i8, i8* %21, align 4, !tbaa !11
  %23 = icmp eq i8 %22, 0
  br i1 %23, label %51, label %28

24:                                               ; preds = %43
  %25 = getelementptr inbounds [100 x [100 x i8]], [100 x [100 x i8]]* %2, i64 0, i64 %20, i64 %45
  %26 = load i8, i8* %25, align 1, !tbaa !11
  %27 = icmp eq i8 %26, 0
  br i1 %27, label %51, label %28, !llvm.loop !12

28:                                               ; preds = %19, %24
  %29 = phi i64 [ %45, %24 ], [ 0, %19 ]
  %30 = phi i8 [ %26, %24 ], [ %22, %19 ]
  %31 = phi i8* [ %25, %24 ], [ %21, %19 ]
  br label %32

32:                                               ; preds = %28, %32
  %33 = phi i64 [ 0, %28 ], [ %39, %32 ]
  %34 = phi i8 [ %22, %28 ], [ %41, %32 ]
  %35 = phi i32 [ 0, %28 ], [ %38, %32 ]
  %36 = icmp eq i8 %30, %34
  %37 = zext i1 %36 to i32
  %38 = add nuw nsw i32 %35, %37
  %39 = add nuw nsw i64 %33, 1
  %40 = getelementptr inbounds [100 x [100 x i8]], [100 x [100 x i8]]* %2, i64 0, i64 %20, i64 %39
  %41 = load i8, i8* %40, align 1, !tbaa !11
  %42 = icmp eq i8 %41, 0
  br i1 %42, label %43, label %32, !llvm.loop !13

43:                                               ; preds = %32
  %44 = icmp eq i32 %38, 1
  %45 = add nuw i64 %29, 1
  br i1 %44, label %46, label %24

46:                                               ; preds = %43
  %47 = sext i8 %30 to i32
  %48 = call i32 (i8*, ...) @printf(i8* nonnull dereferenceable(1) getelementptr inbounds ([4 x i8], [4 x i8]* @.str.2, i64 0, i64 0), i32 %47)
  %49 = load i8, i8* %31, align 1, !tbaa !11
  %50 = icmp eq i8 %49, 0
  br i1 %50, label %51, label %53

51:                                               ; preds = %24, %19, %46
  %52 = call i32 @puts(i8* nonnull dereferenceable(1) getelementptr inbounds ([3 x i8], [3 x i8]* @str, i64 0, i64 0))
  br label %53

53:                                               ; preds = %46, %51
  %54 = add nuw nsw i64 %20, 1
  %55 = load i32, i32* %1, align 4, !tbaa !5
  %56 = sext i32 %55 to i64
  %57 = icmp slt i64 %54, %56
  br i1 %57, label %19, label %58, !llvm.loop !14

58:                                               ; preds = %53, %0, %9
  call void @llvm.lifetime.end.p0i8(i64 10000, i8* nonnull %5) #5
  call void @llvm.lifetime.end.p0i8(i64 4, i8* nonnull %4) #5
  ret i32 0
}

; Function Attrs: argmemonly mustprogress nofree nosync nounwind willreturn
declare void @llvm.lifetime.start.p0i8(i64 immarg, i8* nocapture) #1

; Function Attrs: nofree nounwind
declare noundef i32 @__isoc99_scanf(i8* nocapture noundef readonly, ...) local_unnamed_addr #2

; Function Attrs: nofree nounwind
declare noundef i32 @printf(i8* nocapture noundef readonly, ...) local_unnamed_addr #2

; Function Attrs: argmemonly mustprogress nofree nosync nounwind willreturn
declare void @llvm.lifetime.end.p0i8(i64 immarg, i8* nocapture) #1

; Function Attrs: nofree nounwind
declare noundef i32 @puts(i8* nocapture noundef readonly) local_unnamed_addr #3

; Function Attrs: argmemonly nofree nounwind willreturn writeonly
declare void @llvm.memset.p0i8.i64(i8* nocapture writeonly, i8, i64, i1 immarg) #4


!llvm.module.flags = !{!0, !1, !2, !3}
!llvm.ident = !{!4}

!0 = !{i32 1, !"wchar_size", i32 4}
!1 = !{i32 7, !"PIC Level", i32 2}
!2 = !{i32 7, !"PIE Level", i32 2}
!3 = !{i32 7, !"uwtable", i32 1}
!4 = !{!"clang version 13.0.0"}
!5 = !{!6, !6, i64 0}
!6 = !{!"int", !7, i64 0}
!7 = !{!"omnipotent char", !8, i64 0}
!8 = !{!"Simple C/C++ TBAA"}
!9 = distinct !{!9, !10}
!10 = !{!"llvm.loop.mustprogress"}
!11 = !{!7, !7, i64 0}
!12 = distinct !{!12, !10}
!13 = distinct !{!13, !10}
!14 = distinct !{!14, !10}
